; Function Attrs: mustprogress uwtable
define dso_local void @_Z10output_varPK8VariableRSo(ptr noundef %0, ptr noundef nonnull align 8 dereferenceable(8) %1) local_unnamed_addr #6 {
  %3 = load ptr, ptr %0, align 8, !tbaa !35
  %4 = getelementptr inbounds nuw i8, ptr %3, i64 88
  %5 = load ptr, ptr %4, align 8
  tail call void %5(ptr noundef nonnull align 8 dereferenceable(200) %0, ptr noundef nonnull align 8 dereferenceable(8) %1)
  %6 = getelementptr inbounds nuw i8, ptr %0, i64 96
  %7 = load i8, ptr %6, align 8, !tbaa !145, !range !146, !noundef !139
  %8 = trunc nuw i8 %7 to i1
  br i1 %8, label %.preheader, label %.loopexit

.preheader:                                       ; preds = %2
  %9 = load ptr, ptr %0, align 8, !tbaa !35
  %10 = getelementptr inbounds nuw i8, ptr %9, i64 40
  %11 = load ptr, ptr %10, align 8
  %12 = tail call noundef i64 %11(ptr noundef nonnull align 8 dereferenceable(288) %0)
  %.not = icmp eq i64 %12, 0
  br i1 %.not, label %.loopexit, label %.lr.ph

.lr.ph:                                           ; preds = %.preheader, %.lr.ph
  %.07 = phi i64 [ %14, %.lr.ph ], [ 0, %.preheader ]
  %13 = tail call noundef nonnull align 8 dereferenceable(8) ptr @_ZSt16__ostream_insertIcSt11char_traitsIcEERSt13basic_ostreamIT_T0_ES6_PKS3_l(ptr noundef nonnull align 8 dereferenceable(8) %1, ptr noundef nonnull @.str.11, i64 noundef 3)
  %14 = add nuw i64 %.07, 1
  %15 = load ptr, ptr %0, align 8, !tbaa !35
  %16 = getelementptr inbounds nuw i8, ptr %15, i64 40
  %17 = load ptr, ptr %16, align 8
  %18 = tail call noundef i64 %17(ptr noundef nonnull align 8 dereferenceable(288) %0)
  %19 = icmp ult i64 %14, %18
  br i1 %19, label %.lr.ph, label %.loopexit, !llvm.loop !153

.loopexit:                                        ; preds = %.lr.ph, %.preheader, %2
  ret void
}